target datalayout = "e-m:e-p270:32:32-p271:32:32-p272:64:64-i64:64-i128:128-f80:128-n8:16:32:64-S128"
target triple = "x86_64-pc-linux-gnu"

%struct.ObjectAddress = type { i32, i32, i32 }

; Function Attrs: nounwind uwtable
define dso_local ptr @getObjectDescriptionOids(i32 noundef %0, i32 noundef %1) #0 {
  %3 = alloca i32, align 4
  %4 = alloca i32, align 4
  %5 = alloca %struct.ObjectAddress, align 4
  store i32 %0, ptr %3, align 4
  store i32 %1, ptr %4, align 4
  call void @llvm.lifetime.start.p0(i64 12, ptr %5) #10
  %6 = load i32, ptr %3, align 4
  %7 = getelementptr inbounds nuw %struct.ObjectAddress, ptr %5, i32 0, i32 0
  store i32 %6, ptr %7, align 4
  %8 = load i32, ptr %4, align 4
  %9 = getelementptr inbounds nuw %struct.ObjectAddress, ptr %5, i32 0, i32 1
  store i32 %8, ptr %9, align 4
  %10 = getelementptr inbounds nuw %struct.ObjectAddress, ptr %5, i32 0, i32 2
  store i32 0, ptr %10, align 4
  %11 = call ptr @getObjectDescription(ptr noundef %5, i1 noundef zeroext false)
  call void @llvm.lifetime.end.p0(i64 12, ptr %5) #10
  ret ptr %11
}