; Function Attrs: nounwind uwtable
define dso_local ptr @getObjectDescriptionOids(i32 noundef %0, i32 noundef %1) local_unnamed_addr #0 {
  %3 = alloca %struct.ObjectAddress, align 4
  call void @llvm.lifetime.start.p0(i64 12, ptr nonnull %3) #11
  store i32 %0, ptr %3, align 4
  %4 = getelementptr inbounds nuw i8, ptr %3, i64 4
  store i32 %1, ptr %4, align 4
  %5 = getelementptr inbounds nuw i8, ptr %3, i64 8
  store i32 0, ptr %5, align 4
  %6 = call ptr @getObjectDescription(ptr noundef nonnull %3, i1 noundef zeroext false)
  call void @llvm.lifetime.end.p0(i64 12, ptr nonnull %3) #11
  ret ptr %6
}